target datalayout = "e-m:e-p270:32:32-p271:32:32-p272:64:64-i64:64-i128:128-f80:128-n8:16:32:64-S128"
target triple = "x86_64-pc-linux-gnu"

%struct.playlist = type { [4096 x i8], %struct.FFIOContext, ptr, ptr, i32, ptr, i32, ptr, i32, ptr, ptr, i32, ptr, i32, i32, i32, i64, i64, i32, i64, i32, ptr, i32, i32, i64, i64, i32, i64, i64, ptr, ptr, i32, i32, i32, [4096 x i8], [16 x i8], i32, i64, i64, ptr, i32, ptr, i32, i32, ptr, %struct.HLSAudioSetupInfo, i64, i32, i32, i32, ptr, i32, ptr, i32 }
%struct.FFIOContext = type { %struct.AVIOContext, ptr, i32, i32, i64, i64, i64, i64, i32, i32, i32, i64 }
%struct.AVIOContext = type { ptr, ptr, i32, ptr, ptr, ptr, ptr, ptr, ptr, i64, i32, i32, i32, i32, i32, i64, ptr, ptr, ptr, ptr, i32, i32, ptr, ptr, ptr, i32, ptr, i64, i64 }
%struct.HLSAudioSetupInfo = type { i32, i32, i16, i8, i8, [10 x i8] }
%struct.segment = type { i64, i64, i64, ptr, ptr, i32, [16 x i8], ptr }
%struct.init_section_info = type { [4096 x i8], [32 x i8] }

@.str.111 = private unnamed_addr constant [6 x i8] c"data:\00", align 1

; Function Attrs: nounwind uwtable
define internal ptr @new_init_section(ptr noundef %0, ptr noundef %1, ptr noundef %2) #0 {
  %4 = alloca ptr, align 8
  %5 = alloca ptr, align 8
  %6 = alloca ptr, align 8
  %7 = alloca ptr, align 8
  %8 = alloca ptr, align 8
  %9 = alloca [4096 x i8], align 16
  %10 = alloca ptr, align 8
  %11 = alloca i32, align 4
  %12 = alloca ptr, align 8
  %13 = alloca ptr, align 8
  store ptr %0, ptr %5, align 8, !tbaa !54
  store ptr %1, ptr %6, align 8, !tbaa !253
  store ptr %2, ptr %7, align 8, !tbaa !125
  call void @llvm.lifetime.start.p0(i64 8, ptr %8) #15
  call void @llvm.lifetime.start.p0(i64 4096, ptr %9) #15
  call void @llvm.lifetime.start.p0(i64 8, ptr %10) #15
  %14 = getelementptr inbounds [4096 x i8], ptr %9, i64 0, i64 0
  store ptr %14, ptr %10, align 8, !tbaa !125
  %15 = load ptr, ptr %6, align 8, !tbaa !253
  %16 = getelementptr inbounds nuw %struct.init_section_info, ptr %15, i32 0, i32 0
  %17 = getelementptr inbounds [4096 x i8], ptr %16, i64 0, i64 0
  %18 = load i8, ptr %17, align 1, !tbaa !83
  %19 = icmp ne i8 %18, 0
  br i1 %19, label %21, label %20

20:                                               ; preds = %3
  store ptr null, ptr %4, align 8
  store i32 1, ptr %11, align 4
  br label %101

21:                                               ; preds = %3
  %22 = call noalias ptr @av_mallocz(i64 noundef 72)
  store ptr %22, ptr %8, align 8, !tbaa !78
  %23 = load ptr, ptr %8, align 8, !tbaa !78
  %24 = icmp ne ptr %23, null
  br i1 %24, label %26, label %25

25:                                               ; preds = %21
  store ptr null, ptr %4, align 8
  store i32 1, ptr %11, align 4
  br label %101

26:                                               ; preds = %21
  %27 = load ptr, ptr %6, align 8, !tbaa !253
  %28 = getelementptr inbounds nuw %struct.init_section_info, ptr %27, i32 0, i32 0
  %29 = getelementptr inbounds [4096 x i8], ptr %28, i64 0, i64 0
  %30 = call i32 @av_strncasecmp(ptr noundef %29, ptr noundef @.str.111, i64 noundef 5)
  %31 = icmp ne i32 %30, 0
  br i1 %31, label %36, label %32

32:                                               ; preds = %26
  %33 = load ptr, ptr %6, align 8, !tbaa !253
  %34 = getelementptr inbounds nuw %struct.init_section_info, ptr %33, i32 0, i32 0
  %35 = getelementptr inbounds [4096 x i8], ptr %34, i64 0, i64 0
  store ptr %35, ptr %10, align 8, !tbaa !125
  br label %49

36:                                               ; preds = %26
  %37 = getelementptr inbounds [4096 x i8], ptr %9, i64 0, i64 0
  %38 = load ptr, ptr %7, align 8, !tbaa !125
  %39 = load ptr, ptr %6, align 8, !tbaa !253
  %40 = getelementptr inbounds nuw %struct.init_section_info, ptr %39, i32 0, i32 0
  %41 = getelementptr inbounds [4096 x i8], ptr %40, i64 0, i64 0
  %42 = call i32 @ff_make_absolute_url(ptr noundef %37, i32 noundef 4096, ptr noundef %38, ptr noundef %41)
  %43 = getelementptr inbounds [4096 x i8], ptr %9, i64 0, i64 0
  %44 = load i8, ptr %43, align 16, !tbaa !83
  %45 = icmp ne i8 %44, 0
  br i1 %45, label %48, label %46

46:                                               ; preds = %36
  %47 = load ptr, ptr %8, align 8, !tbaa !78
  call void @av_free(ptr noundef %47)
  store ptr null, ptr %4, align 8
  store i32 1, ptr %11, align 4
  br label %101

48:                                               ; preds = %36
  br label %49

49:                                               ; preds = %48, %32
  %50 = load ptr, ptr %10, align 8, !tbaa !125
  %51 = call noalias ptr @av_strdup(ptr noundef %50)
  %52 = load ptr, ptr %8, align 8, !tbaa !78
  %53 = getelementptr inbounds nuw %struct.segment, ptr %52, i32 0, i32 3
  store ptr %51, ptr %53, align 8, !tbaa !124
  %54 = load ptr, ptr %8, align 8, !tbaa !78
  %55 = getelementptr inbounds nuw %struct.segment, ptr %54, i32 0, i32 3
  %56 = load ptr, ptr %55, align 8, !tbaa !124
  %57 = icmp ne ptr %56, null
  br i1 %57, label %60, label %58

58:                                               ; preds = %49
  %59 = load ptr, ptr %8, align 8, !tbaa !78
  call void @av_free(ptr noundef %59)
  store ptr null, ptr %4, align 8
  store i32 1, ptr %11, align 4
  br label %101

60:                                               ; preds = %49
  %61 = load ptr, ptr %6, align 8, !tbaa !253
  %62 = getelementptr inbounds nuw %struct.init_section_info, ptr %61, i32 0, i32 1
  %63 = getelementptr inbounds [32 x i8], ptr %62, i64 0, i64 0
  %64 = load i8, ptr %63, align 1, !tbaa !83
  %65 = icmp ne i8 %64, 0
  br i1 %65, label %66, label %86

66:                                               ; preds = %60
  %67 = load ptr, ptr %6, align 8, !tbaa !253
  %68 = getelementptr inbounds nuw %struct.init_section_info, ptr %67, i32 0, i32 1
  %69 = getelementptr inbounds [32 x i8], ptr %68, i64 0, i64 0
  %70 = call i64 @strtoll(ptr noundef %69, ptr noundef null, i32 noundef 10) #15
  %71 = load ptr, ptr %8, align 8, !tbaa !78
  %72 = getelementptr inbounds nuw %struct.segment, ptr %71, i32 0, i32 2
  store i64 %70, ptr %72, align 8, !tbaa !200
  %73 = load ptr, ptr %6, align 8, !tbaa !253
  %74 = getelementptr inbounds nuw %struct.init_section_info, ptr %73, i32 0, i32 1
  %75 = getelementptr inbounds [32 x i8], ptr %74, i64 0, i64 0
  %76 = call ptr @strchr(ptr noundef %75, i32 noundef 64) #14
  store ptr %76, ptr %10, align 8, !tbaa !125
  %77 = load ptr, ptr %10, align 8, !tbaa !125
  %78 = icmp ne ptr %77, null
  br i1 %78, label %79, label %85

79:                                               ; preds = %66
  %80 = load ptr, ptr %10, align 8, !tbaa !125
  %81 = getelementptr inbounds i8, ptr %80, i64 1
  %82 = call i64 @strtoll(ptr noundef %81, ptr noundef null, i32 noundef 10) #15
  %83 = load ptr, ptr %8, align 8, !tbaa !78
  %84 = getelementptr inbounds nuw %struct.segment, ptr %83, i32 0, i32 1
  store i64 %82, ptr %84, align 8, !tbaa !201
  br label %85

85:                                               ; preds = %79, %66
  br label %89

86:                                               ; preds = %60
  %87 = load ptr, ptr %8, align 8, !tbaa !78
  %88 = getelementptr inbounds nuw %struct.segment, ptr %87, i32 0, i32 2
  store i64 -1, ptr %88, align 8, !tbaa !200
  br label %89

89:                                               ; preds = %86, %85
  br label %90

90:                                               ; preds = %89
  call void @llvm.lifetime.start.p0(i64 8, ptr %12) #15
  %91 = load ptr, ptr %5, align 8, !tbaa !54
  %92 = getelementptr inbounds nuw %struct.playlist, ptr %91, i32 0, i32 52
  store ptr %92, ptr %12, align 8, !tbaa !197
  call void @llvm.lifetime.start.p0(i64 8, ptr %13) #15
  %93 = load ptr, ptr %8, align 8, !tbaa !78
  store ptr %93, ptr %13, align 8, !tbaa !78
  %94 = load ptr, ptr %12, align 8, !tbaa !197
  %95 = load ptr, ptr %5, align 8, !tbaa !54
  %96 = getelementptr inbounds nuw %struct.playlist, ptr %95, i32 0, i32 51
  %97 = load ptr, ptr %13, align 8, !tbaa !78
  call void @av_dynarray_add(ptr noundef %94, ptr noundef %96, ptr noundef %97)
  call void @llvm.lifetime.end.p0(i64 8, ptr %13) #15
  call void @llvm.lifetime.end.p0(i64 8, ptr %12) #15
  br label %98

98:                                               ; preds = %90
  br label %99

99:                                               ; preds = %98
  %100 = load ptr, ptr %8, align 8, !tbaa !78
  store ptr %100, ptr %4, align 8
  store i32 1, ptr %11, align 4
  br label %101

101:                                              ; preds = %99, %58, %46, %25, %20
  call void @llvm.lifetime.end.p0(i64 8, ptr %10) #15
  call void @llvm.lifetime.end.p0(i64 4096, ptr %9) #15
  call void @llvm.lifetime.end.p0(i64 8, ptr %8) #15
  %102 = load ptr, ptr %4, align 8
  ret ptr %102
}