; Function Attrs: nounwind uwtable
define internal fastcc ptr @new_init_section(ptr noundef %0, ptr noundef nonnull %1, ptr noundef %2) unnamed_addr #0 {
  %4 = alloca [4096 x i8], align 16
  call void @llvm.lifetime.start.p0(i64 4096, ptr nonnull %4) #16
  %5 = load i8, ptr %1, align 1, !tbaa !76
  %.not = icmp eq i8 %5, 0
  br i1 %.not, label %32, label %6

6:                                                ; preds = %3
  %7 = tail call noalias ptr @av_mallocz(i64 noundef 72) #16
  %.not29 = icmp eq ptr %7, null
  br i1 %.not29, label %32, label %8

8:                                                ; preds = %6
  %9 = tail call i32 @av_strncasecmp(ptr noundef nonnull %1, ptr noundef nonnull @.str.111, i64 noundef 5) #16
  %.not30 = icmp eq i32 %9, 0
  br i1 %.not30, label %14, label %10

10:                                               ; preds = %8
  %11 = call i32 @ff_make_absolute_url(ptr noundef nonnull %4, i32 noundef 4096, ptr noundef %2, ptr noundef nonnull %1) #16
  %12 = load i8, ptr %4, align 16, !tbaa !76
  %.not31 = icmp eq i8 %12, 0
  br i1 %.not31, label %13, label %14

13:                                               ; preds = %10
  call void @av_free(ptr noundef nonnull %7) #16
  br label %32

14:                                               ; preds = %8, %10
  %.026 = phi ptr [ %4, %10 ], [ %1, %8 ]
  %15 = call noalias ptr @av_strdup(ptr noundef nonnull %.026) #16
  %16 = getelementptr inbounds nuw i8, ptr %7, i64 24
  store ptr %15, ptr %16, align 8, !tbaa !119
  %.not32 = icmp eq ptr %15, null
  br i1 %.not32, label %17, label %18

17:                                               ; preds = %14
  call void @av_free(ptr noundef nonnull %7) #16
  br label %32

18:                                               ; preds = %14
  %19 = getelementptr inbounds nuw i8, ptr %1, i64 4096
  %20 = load i8, ptr %19, align 1, !tbaa !76
  %.not33 = icmp eq i8 %20, 0
  br i1 %.not33, label %.sink.split, label %21

21:                                               ; preds = %18
  %22 = call i64 @strtoll(ptr noundef nonnull captures(none) %19, ptr noundef null, i32 noundef 10) #16
  %23 = getelementptr inbounds nuw i8, ptr %7, i64 16
  store i64 %22, ptr %23, align 8, !tbaa !235
  %24 = call ptr @strchr(ptr noundef nonnull dereferenceable(1) %19, i32 noundef 64) #15
  %.not34 = icmp eq ptr %24, null
  br i1 %.not34, label %29, label %25

25:                                               ; preds = %21
  %26 = getelementptr inbounds nuw i8, ptr %24, i64 1
  %27 = call i64 @strtoll(ptr noundef nonnull captures(none) %26, ptr noundef null, i32 noundef 10) #16
  br label %.sink.split

.sink.split:                                      ; preds = %18, %25
  %.sink36 = phi i64 [ 8, %25 ], [ 16, %18 ]
  %.sink = phi i64 [ %27, %25 ], [ -1, %18 ]
  %28 = getelementptr inbounds nuw i8, ptr %7, i64 %.sink36
  store i64 %.sink, ptr %28, align 8, !tbaa !220
  br label %29

29:                                               ; preds = %.sink.split, %21
  %30 = getelementptr inbounds nuw i8, ptr %0, i64 8840
  %31 = getelementptr inbounds nuw i8, ptr %0, i64 8832
  call void @av_dynarray_add(ptr noundef nonnull %30, ptr noundef nonnull %31, ptr noundef nonnull %7) #16
  br label %32

32:                                               ; preds = %6, %3, %29, %17, %13
  %.0 = phi ptr [ %7, %29 ], [ null, %17 ], [ null, %13 ], [ null, %3 ], [ null, %6 ]
  call void @llvm.lifetime.end.p0(i64 4096, ptr nonnull %4) #16
  ret ptr %.0
}